target datalayout = "e-m:e-p270:32:32-p271:32:32-p272:64:64-i64:64-i128:128-f80:128-n8:16:32:64-S128"
target triple = "x86_64-pc-linux-gnu"

%class.symbol = type { ptr }
%"class.array::solver" = type { %"class.euf::th_euf_solver.base", %class.array_util, %"struct.array::solver::stats", %class.scoped_ptr_vector, %class.ast2ast_trailmap, %class.ast2ast_trailmap.12, %class.obj_map.23, %class.union_find, %"struct.array::solver::axiom_record::hash", %"struct.array::solver::axiom_record::eq", %class.hashtable, %class.svector.30, i32, i32, i8, %class.scoped_ptr, %class.ptr_vector, %class.ptr_vector.32, %class.svector.34, %class.obj_map.36, %class.ptr_vector, %class.ptr_vector.41 }
%"class.euf::th_euf_solver.base" = type <{ %"class.euf::th_solver", ptr, %class.ptr_vector, %class.svector.1, i32 }>
%"class.euf::th_solver" = type { %"class.sat::extension", %"class.euf::th_model_builder", %"class.euf::th_decompile", %"class.euf::th_internalizer", ptr }
%"class.sat::extension" = type { ptr, i8, i32, %class.symbol, ptr }
%"class.euf::th_model_builder" = type { ptr }
%"class.euf::th_decompile" = type { ptr }
%"class.euf::th_internalizer" = type { ptr, %class.ptr_vector, %class.svector }
%class.svector = type { %class.vector.0 }
%class.vector.0 = type { ptr }
%class.svector.1 = type { %class.vector.2 }
%class.vector.2 = type { ptr }
%class.array_util = type { %class.array_recognizers, ptr }
%class.array_recognizers = type { i32 }
%"struct.array::solver::stats" = type { i32, i32, i32, i32, i32, i32, i32, i32, i32, i32, i32, i32, i32, i32 }
%class.scoped_ptr_vector = type { %class.ptr_vector.3 }
%class.ptr_vector.3 = type { %class.vector.4 }
%class.vector.4 = type { ptr }
%class.ast2ast_trailmap = type { %class.ref_vector, %class.ref_vector.7, %class.obj_map }
%class.ref_vector = type { %class.ref_vector_core }
%class.ref_vector_core = type { %class.ref_manager_wrapper, %class.ptr_vector.5 }
%class.ref_manager_wrapper = type { ptr }
%class.ptr_vector.5 = type { %class.vector.6 }
%class.vector.6 = type { ptr }
%class.ref_vector.7 = type { %class.ref_vector_core.8 }
%class.ref_vector_core.8 = type { %class.ref_manager_wrapper.9, %class.ptr_vector.10 }
%class.ref_manager_wrapper.9 = type { ptr }
%class.ptr_vector.10 = type { %class.vector.11 }
%class.vector.11 = type { ptr }
%class.obj_map = type { %class.core_hashtable }
%class.core_hashtable = type <{ ptr, i32, i32, i32, [4 x i8] }>
%class.ast2ast_trailmap.12 = type { %class.ref_vector, %class.ref_vector.13, %class.obj_map.18 }
%class.ref_vector.13 = type { %class.ref_vector_core.14 }
%class.ref_vector_core.14 = type { %class.ref_manager_wrapper.15, %class.ptr_vector.16 }
%class.ref_manager_wrapper.15 = type { ptr }
%class.ptr_vector.16 = type { %class.vector.17 }
%class.vector.17 = type { ptr }
%class.obj_map.18 = type { %class.core_hashtable.19 }
%class.core_hashtable.19 = type <{ ptr, i32, i32, i32, [4 x i8] }>
%class.obj_map.23 = type { %class.core_hashtable.24 }
%class.core_hashtable.24 = type <{ ptr, i32, i32, i32, [4 x i8] }>
%class.union_find = type { ptr, ptr, %class.svector.1, %class.svector.1, %class.svector.1, %"class.union_find<array::solver>::mk_var_trail" }
%"class.union_find<array::solver>::mk_var_trail" = type { %class.trail, ptr }
%class.trail = type { ptr }
%"struct.array::solver::axiom_record::hash" = type { ptr }
%"struct.array::solver::axiom_record::eq" = type { ptr }
%class.hashtable = type { %class.core_hashtable.base.29, [4 x i8] }
%class.core_hashtable.base.29 = type <{ %"struct.array::solver::axiom_record::hash", %"struct.array::solver::axiom_record::eq", ptr, i32, i32, i32 }>
%class.svector.30 = type { %class.vector.31 }
%class.vector.31 = type { ptr }
%class.scoped_ptr = type { ptr }
%class.ptr_vector.32 = type { %class.vector.33 }
%class.vector.33 = type { ptr }
%class.svector.34 = type { %class.vector.35 }
%class.vector.35 = type { ptr }
%class.obj_map.36 = type { %class.core_hashtable.37 }
%class.core_hashtable.37 = type <{ ptr, i32, i32, i32, [4 x i8] }>
%class.ptr_vector = type { %class.vector }
%class.vector = type { ptr }
%class.ptr_vector.41 = type { %class.vector.42 }
%class.vector.42 = type { ptr }
%"class.euf::th_euf_solver" = type <{ %"class.euf::th_solver", ptr, %class.ptr_vector, %class.svector.1, i32, [4 x i8] }>
%"class.sat::solver" = type { %"class.sat::solver_core", i8, [7 x i8], %"struct.sat::config", %"struct.sat::stats", %class.scoped_ptr.137, %class.scoped_ptr.138, ptr, %"class.sat::drat", [2 x %"class.sat::clause_allocator"], i8, %class.random_gen, %"class.sat::cleaner", %class.svector.145, %"class.sat::model_converter", i8, %"class.sat::simplifier", %"class.sat::scc", %"class.sat::asymm_branch", %"class.sat::probing", i8, [7 x i8], %"class.sat::mus", i8, i8, [6 x i8], %"class.sat::justification", %"class.sat::literal", %class.ptr_vector.53, %class.ptr_vector.53, i32, %class.svector.1, %class.svector.1, %class.svector.1, %class.svector.1, %class.vector.164, %class.svector.145, %class.svector.165, %class.svector.47, %class.svector.47, %class.svector.47, %class.svector.47, %class.svector.47, %class.svector.1, %class.svector.1, i32, %class.svector.99, %class.svector.1, i32, %class.svector.167, %class.svector.167, %class.svector.167, %class.svector.167, %class.svector.167, i32, double, %class.svector.47, %class.svector.47, %class.svector.47, i8, %class.svector.154, i32, i32, i32, i32, i32, i32, %"struct.sat::backoff", i32, i32, %"struct.sat::backoff", %"struct.sat::backoff", %class.var_queue, i32, i32, i32, %class.ema, %class.ema, %class.ema, %class.ema, %class.ema, %class.svector.99, %class.svector.156, %"class.std::__cxx11::basic_string", i8, i8, %class.visit_helper, %class.svector.169, %class.scoped_limit_trail, %class.stopwatch, %class.params_ref, %"struct.sat::no_drat_params", %class.scoped_ptr.171, %class.svector.99, %"class.sat::literal_set", %"class.sat::literal_set", %class.svector.99, i32, i32, i32, i32, i8, ptr, ptr, %class.statistics, i32, i32, i32, i32, i8, i32, i32, i32, i32, i32, i32, i32, double, i32, double, i8, i8, %class.svector.99, i8, %class.svector.167, i32, i32, i32, %class.svector.99, %class.svector.99, %class.svector.154, %class.svector.1, %class.approx_set_tpl, %class.svector.99, %class.svector.99, %class.vector.55, %class.svector.99, %class.svector.162, %class.u_map, %class.svector.99 }
%"class.sat::solver_core" = type { ptr, ptr }
%"struct.sat::config" = type <{ i64, i32, i32, i32, i8, [3 x i8], i32, i32, double, i32, i8, [3 x i8], i32, i8, [3 x i8], i32, [4 x i8], double, double, i32, i32, double, double, i32, [4 x i8], %class.symbol, double, i32, i32, i8, [3 x i8], i32, i32, i8, [3 x i8], i32, i8, [3 x i8], i32, i8, [3 x i8], i32, i8, i8, [2 x i8], i32, i8, i8, i8, i8, i8, i8, i8, i8, i32, i8, i8, i8, i8, i32, double, i32, [4 x i8], double, double, double, double, i32, i8, i8, [2 x i8], double, i8, i8, [2 x i8], i32, double, i32, i32, i32, i32, i32, i32, i32, i32, i8, i8, i8, i8, i32, i32, i8, i8, i8, i8, i8, i8, i8, [5 x i8], %class.symbol, i8, i8, i8, i8, i8, i8, [2 x i8], i32, i32, i32, i8, [3 x i8], double, double, double, double, double, i8, [7 x i8] }>
%"struct.sat::stats" = type { i32, i32, i32, i32, i32, i32, i32, i32, i32, i32, i32, i32, i32, i32, i32, i32, i32, i32, i32, i32, i32 }
%class.scoped_ptr.137 = type { ptr }
%class.scoped_ptr.138 = type { ptr }
%"class.sat::drat" = type { ptr, %class.svector.139, ptr, %"class.sat::clause_allocator", ptr, ptr, %class.svector.141, %class.svector.143, %class.vector.55, %class.svector.145, i8, i8, i8, i8, i8, %"struct.sat::drat::stats" }
%class.svector.139 = type { %class.vector.140 }
%class.vector.140 = type { ptr }
%"class.sat::clause_allocator" = type { %class.sat_allocator, %class.id_gen }
%class.sat_allocator = type { ptr, i64, %class.ptr_vector.49, ptr, [65 x %class.ptr_vector.51] }
%class.ptr_vector.49 = type { %class.vector.50 }
%class.vector.50 = type { ptr }
%class.ptr_vector.51 = type { %class.vector.52 }
%class.vector.52 = type { ptr }
%class.id_gen = type { i32, %class.svector.1 }
%class.svector.141 = type { %class.vector.142 }
%class.vector.142 = type { ptr }
%class.svector.143 = type { %class.vector.144 }
%class.vector.144 = type { ptr }
%"struct.sat::drat::stats" = type { i32, i32, i32, i32 }
%class.random_gen = type { i32 }
%"class.sat::cleaner" = type { ptr, i32, i32, i32, i32 }
%"class.sat::model_converter" = type { %class.vector.147, i32, %class.svector.47, ptr, %class.svector.148 }
%class.vector.147 = type { ptr }
%class.svector.148 = type { %class.vector.149 }
%class.vector.149 = type { ptr }
%"class.sat::simplifier" = type { ptr, i32, %"class.sat::use_list", %"class.sat::ext_use_list", %"class.sat::clause_set", %class.svector.152, i32, %class.tracked_uint_set, i8, %"class.sat::tmp_clause", %class.svector.154, i32, i32, i8, i8, i8, i8, i32, i8, i8, i32, i8, i32, i8, i8, i32, i32, i32, i32, i32, i32, i32, i32, i32, i32, i8, i32, i8, i8, i32, i32, i32, i32, i32, i32, i32, i32, i32, i32, i32, i8, i32, %class.ptr_vector.53, %class.svector.99, %class.svector.156, %class.svector.156, %class.svector.99 }
%"class.sat::use_list" = type { %class.vector.150 }
%class.vector.150 = type { ptr }
%"class.sat::ext_use_list" = type { %class.vector.151 }
%class.vector.151 = type { ptr }
%"class.sat::clause_set" = type { %class.svector.1, %class.ptr_vector.53 }
%class.svector.152 = type { %class.vector.153 }
%class.vector.153 = type { ptr }
%class.tracked_uint_set = type { %class.svector.154, %class.svector.1 }
%"class.sat::tmp_clause" = type { ptr }
%"class.sat::scc" = type { ptr, i8, i8, i32, i32, %"class.sat::big" }
%"class.sat::big" = type { ptr, i32, %class.vector.158, %class.svector.47, %class.svector.34, %class.svector.34, %class.svector.99, %class.svector.99, i8, i8, %class.vector.158 }
%class.vector.158 = type { ptr }
%"class.sat::asymm_branch" = type { ptr, %class.params_ref, i64, %class.random_gen, i32, i32, i8, i32, i32, i8, i8, i64, i32, i32, i32, %class.svector.99, %class.svector.99, %class.svector.159, %class.svector.159, %class.svector.99, %class.svector.99 }
%class.svector.159 = type { %class.vector.160 }
%class.vector.160 = type { ptr }
%"class.sat::probing" = type { ptr, i32, %"class.sat::literal_set", %class.svector.99, i32, i8, i32, i8, i8, i64, i32, %class.vector.161, %class.svector.162, %"class.sat::big" }
%class.vector.161 = type { ptr }
%"class.sat::mus" = type <{ ptr, %class.svector.99, %class.svector.99, i8, [7 x i8], %class.svector.145, i32, [4 x i8] }>
%"class.sat::justification" = type <{ i32, [4 x i8], i64, i32, [4 x i8] }>
%"class.sat::literal" = type { i32 }
%class.ptr_vector.53 = type { %class.vector.54 }
%class.vector.54 = type { ptr }
%class.vector.164 = type { ptr }
%class.svector.145 = type { %class.vector.146 }
%class.vector.146 = type { ptr }
%class.svector.165 = type { %class.vector.166 }
%class.vector.166 = type { ptr }
%class.svector.47 = type { %class.vector.48 }
%class.vector.48 = type { ptr }
%"struct.sat::backoff" = type { i32, i32, i32, i32, i32 }
%class.var_queue = type { %class.heap }
%class.heap = type { %"struct.var_queue<svector<unsigned int>>::lt", %class.svector.34, %class.svector.34 }
%"struct.var_queue<svector<unsigned int>>::lt" = type { ptr }
%class.ema = type { double, double, double, i32, i32 }
%class.svector.156 = type { %class.vector.157 }
%class.vector.157 = type { ptr }
%"class.std::__cxx11::basic_string" = type { %"struct.std::__cxx11::basic_string<char>::_Alloc_hider", i64, %union.anon }
%"struct.std::__cxx11::basic_string<char>::_Alloc_hider" = type { ptr }
%union.anon = type { i64, [8 x i8] }
%class.visit_helper = type { %class.svector.1, i32, i32 }
%class.svector.169 = type { %class.vector.170 }
%class.vector.170 = type { ptr }
%class.scoped_limit_trail = type { %class.svector.1, i32, i32 }
%class.stopwatch = type <{ %"class.std::chrono::time_point", %"class.std::chrono::duration", i8, [7 x i8] }>
%"class.std::chrono::time_point" = type { %"class.std::chrono::duration" }
%"class.std::chrono::duration" = type { i64 }
%class.params_ref = type { ptr }
%"struct.sat::no_drat_params" = type { %class.params_ref }
%class.scoped_ptr.171 = type { ptr }
%"class.sat::literal_set" = type { %class.tracked_uint_set }
%class.statistics = type { %class.svector.172, %class.svector.174 }
%class.svector.172 = type { %class.vector.173 }
%class.vector.173 = type { ptr }
%class.svector.174 = type { %class.vector.175 }
%class.vector.175 = type { ptr }
%class.svector.167 = type { %class.vector.168 }
%class.vector.168 = type { ptr }
%class.svector.154 = type { %class.vector.155 }
%class.vector.155 = type { ptr }
%class.approx_set_tpl = type { i32 }
%class.vector.55 = type { ptr }
%class.svector.162 = type { %class.vector.163 }
%class.vector.163 = type { ptr }
%class.u_map = type { %class.map.176 }
%class.map.176 = type { %class.table2map.177 }
%class.table2map.177 = type { %class.core_hashtable.178 }
%class.core_hashtable.178 = type <{ ptr, i32, i32, i32, [4 x i8] }>
%class.svector.99 = type { %class.vector.100 }
%class.vector.100 = type { ptr }

; Function Attrs: mustprogress nounwind uwtable
define linkonce_odr hidden noundef i32 @_ZN10random_genclEv(ptr noundef nonnull align 4 dereferenceable(4) %0) #6 comdat align 2 {
  %2 = alloca ptr, align 8
  store ptr %0, ptr %2, align 8, !tbaa !165
  %3 = load ptr, ptr %2, align 8
  %4 = getelementptr inbounds nuw %class.random_gen, ptr %3, i32 0, i32 0
  %5 = load i32, ptr %4, align 4, !tbaa !462
  %6 = zext i32 %5 to i64
  %7 = mul nsw i64 %6, 214013
  %8 = add nsw i64 %7, 2531011
  %9 = trunc i64 %8 to i32
  %10 = getelementptr inbounds nuw %class.random_gen, ptr %3, i32 0, i32 0
  store i32 %9, ptr %10, align 4, !tbaa !462
  %11 = lshr i32 %9, 16
  %12 = and i32 %11, 32767
  ret i32 %12
}

; Function Attrs: mustprogress nounwind uwtable
define linkonce_odr hidden noundef i32 @_ZNK6vectorIN5array6solver12axiom_recordELb0EjE4sizeEv(ptr noundef nonnull align 8 dereferenceable(8) %0) #6 comdat align 2 {
  %2 = alloca i32, align 4
  %3 = alloca ptr, align 8
  store ptr %0, ptr %3, align 8, !tbaa !150
  %4 = load ptr, ptr %3, align 8
  %5 = getelementptr inbounds nuw %class.vector.31, ptr %4, i32 0, i32 0
  %6 = load ptr, ptr %5, align 8, !tbaa !167
  %7 = icmp eq ptr %6, null
  br i1 %7, label %8, label %9

8:                                                ; preds = %1
  store i32 0, ptr %2, align 4
  br label %14

9:                                                ; preds = %1
  %10 = getelementptr inbounds nuw %class.vector.31, ptr %4, i32 0, i32 0
  %11 = load ptr, ptr %10, align 8, !tbaa !167
  %12 = getelementptr inbounds i32, ptr %11, i64 -1
  %13 = load i32, ptr %12, align 4, !tbaa !10
  store i32 %13, ptr %2, align 4
  br label %14

14:                                               ; preds = %9, %8
  %15 = load i32, ptr %2, align 4
  ret i32 %15
}

; Function Attrs: mustprogress uwtable
define linkonce_odr hidden noundef i32 @_ZN10random_genclEj(ptr noundef nonnull align 4 dereferenceable(4) %0, i32 noundef %1) #4 comdat align 2 {
  %3 = alloca ptr, align 8
  %4 = alloca i32, align 4
  %5 = alloca i32, align 4
  store ptr %0, ptr %3, align 8, !tbaa !165
  store i32 %1, ptr %4, align 4, !tbaa !10
  %6 = load ptr, ptr %3, align 8
  call void @llvm.lifetime.start.p0(i64 4, ptr %5) #3
  %7 = call noundef i32 @_ZN10random_genclEv(ptr noundef nonnull align 4 dereferenceable(4) %6)
  store i32 %7, ptr %5, align 4, !tbaa !10
  %8 = load i32, ptr %5, align 4, !tbaa !10
  %9 = load i32, ptr %4, align 4, !tbaa !10
  %10 = urem i32 %8, %9
  call void @llvm.lifetime.end.p0(i64 4, ptr %5) #3
  ret i32 %10
}

; Function Attrs: mustprogress nounwind uwtable
define linkonce_odr hidden noundef nonnull align 4 dereferenceable(4) ptr @_ZN3sat6solver4randEv(ptr noundef nonnull align 8 dereferenceable(4264) %0) #6 comdat align 2 {
  %2 = alloca ptr, align 8
  store ptr %0, ptr %2, align 8, !tbaa !164
  %3 = load ptr, ptr %2, align 8
  %4 = getelementptr inbounds nuw %"class.sat::solver", ptr %3, i32 0, i32 11
  ret ptr %4
}

; Function Attrs: mustprogress nounwind uwtable
define linkonce_odr hidden noundef nonnull align 8 dereferenceable(4264) ptr @_ZN3sat9extension1sEv(ptr noundef nonnull align 8 dereferenceable(32) %0) #6 comdat align 2 {
  %2 = alloca ptr, align 8
  store ptr %0, ptr %2, align 8, !tbaa !141
  %3 = load ptr, ptr %2, align 8
  %4 = getelementptr inbounds nuw %"class.sat::extension", ptr %3, i32 0, i32 4
  %5 = load ptr, ptr %4, align 8, !tbaa !163
  ret ptr %5
}

; Function Attrs: mustprogress uwtable
define linkonce_odr hidden void @_ZN3euf13th_euf_solver10force_pushEv(ptr noundef nonnull align 8 dereferenceable(108) %0) #4 comdat align 2 {
  %2 = alloca ptr, align 8
  store ptr %0, ptr %2, align 8, !tbaa !154
  %3 = load ptr, ptr %2, align 8
  br label %4

4:                                                ; preds = %12, %1
  %5 = getelementptr inbounds nuw %"class.euf::th_euf_solver", ptr %3, i32 0, i32 4
  %6 = load i32, ptr %5, align 8, !tbaa !161
  %7 = icmp ugt i32 %6, 0
  br i1 %7, label %8, label %16

8:                                                ; preds = %4
  %9 = load ptr, ptr %3, align 8, !tbaa !12
  %10 = getelementptr inbounds ptr, ptr %9, i64 64
  %11 = load ptr, ptr %10, align 8
  call void %11(ptr noundef nonnull align 8 dereferenceable(108) %3)
  br label %12

12:                                               ; preds = %8
  %13 = getelementptr inbounds nuw %"class.euf::th_euf_solver", ptr %3, i32 0, i32 4
  %14 = load i32, ptr %13, align 8, !tbaa !161
  %15 = add i32 %14, -1
  store i32 %15, ptr %13, align 8, !tbaa !161
  br label %4, !llvm.loop !162

16:                                               ; preds = %4
  ret void
}

; Function Attrs: mustprogress uwtable
define hidden noundef i32 @_ZN5array6solver5checkEv(ptr noundef nonnull align 8 dereferenceable(536) %0) unnamed_addr #4 align 2 {
  %2 = alloca i32, align 4
  %3 = alloca ptr, align 8
  %4 = alloca [2 x i8], align 1
  %5 = alloca i32, align 4
  %6 = alloca i32, align 4
  store ptr %0, ptr %3, align 8, !tbaa !3
  %7 = load ptr, ptr %3, align 8
  call void @_ZN3euf13th_euf_solver10force_pushEv(ptr noundef nonnull align 8 dereferenceable(108) %7)
  call void @llvm.lifetime.start.p0(i64 2, ptr %4) #3
  call void @llvm.memset.p0.i64(ptr align 1 %4, i8 0, i64 2, i1 false)
  %8 = call noundef nonnull align 8 dereferenceable(4264) ptr @_ZN3sat9extension1sEv(ptr noundef nonnull align 8 dereferenceable(32) %7)
  %9 = call noundef nonnull align 4 dereferenceable(4) ptr @_ZN3sat6solver4randEv(ptr noundef nonnull align 8 dereferenceable(4264) %8)
  %10 = call noundef i32 @_ZN10random_genclEj(ptr noundef nonnull align 4 dereferenceable(4) %9, i32 noundef 2)
  %11 = zext i32 %10 to i64
  %12 = getelementptr inbounds nuw [2 x i8], ptr %4, i64 0, i64 %11
  store i8 1, ptr %12, align 1, !tbaa !156
  call void @llvm.lifetime.start.p0(i64 4, ptr %5) #3
  store i32 0, ptr %5, align 4, !tbaa !10
  br label %13

13:                                               ; preds = %37, %1
  %14 = load i32, ptr %5, align 4, !tbaa !10
  %15 = icmp ult i32 %14, 2
  br i1 %15, label %17, label %16

16:                                               ; preds = %13
  store i32 2, ptr %6, align 4
  br label %40

17:                                               ; preds = %13
  %18 = load i32, ptr %5, align 4, !tbaa !10
  %19 = zext i32 %18 to i64
  %20 = getelementptr inbounds nuw [2 x i8], ptr %4, i64 0, i64 %19
  %21 = load i8, ptr %20, align 1, !tbaa !156, !range !157, !noundef !158
  %22 = trunc i8 %21 to i1
  br i1 %22, label %23, label %26

23:                                               ; preds = %17
  %24 = call noundef zeroext i1 @_ZN5array6solver18add_delayed_axiomsEv(ptr noundef nonnull align 8 dereferenceable(536) %7)
  br i1 %24, label %25, label %26

25:                                               ; preds = %23
  store i32 1, ptr %2, align 4
  store i32 1, ptr %6, align 4
  br label %40

26:                                               ; preds = %23, %17
  %27 = load i32, ptr %5, align 4, !tbaa !10
  %28 = zext i32 %27 to i64
  %29 = getelementptr inbounds nuw [2 x i8], ptr %4, i64 0, i64 %28
  %30 = load i8, ptr %29, align 1, !tbaa !156, !range !157, !noundef !158
  %31 = trunc i8 %30 to i1
  br i1 %31, label %35, label %32

32:                                               ; preds = %26
  %33 = call noundef zeroext i1 @_ZN5array6solver24add_interface_equalitiesEv(ptr noundef nonnull align 8 dereferenceable(536) %7)
  br i1 %33, label %34, label %35

34:                                               ; preds = %32
  store i32 1, ptr %2, align 4
  store i32 1, ptr %6, align 4
  br label %40

35:                                               ; preds = %32, %26
  br label %36

36:                                               ; preds = %35
  br label %37

37:                                               ; preds = %36
  %38 = load i32, ptr %5, align 4, !tbaa !10
  %39 = add i32 %38, 1
  store i32 %39, ptr %5, align 4, !tbaa !10
  br label %13, !llvm.loop !159

40:                                               ; preds = %34, %25, %16
  call void @llvm.lifetime.end.p0(i64 4, ptr %5) #3
  %41 = load i32, ptr %6, align 4
  switch i32 %41, label %53 [
    i32 2, label %42
  ]

42:                                               ; preds = %40
  %43 = getelementptr inbounds nuw %"class.array::solver", ptr %7, i32 0, i32 13
  %44 = load i32, ptr %43, align 4, !tbaa !100
  %45 = getelementptr inbounds nuw %"class.array::solver", ptr %7, i32 0, i32 11
  %46 = call noundef i32 @_ZNK6vectorIN5array6solver12axiom_recordELb0EjE4sizeEv(ptr noundef nonnull align 8 dereferenceable(8) %45)
  %47 = icmp ult i32 %44, %46
  br i1 %47, label %48, label %49

48:                                               ; preds = %42
  store i32 1, ptr %2, align 4
  store i32 1, ptr %6, align 4
  br label %53

49:                                               ; preds = %42
  %50 = call noundef zeroext i1 @_ZN5array6solver13check_lambdasEv(ptr noundef nonnull align 8 dereferenceable(536) %7)
  br i1 %50, label %52, label %51

51:                                               ; preds = %49
  store i32 2, ptr %2, align 4
  store i32 1, ptr %6, align 4
  br label %53

52:                                               ; preds = %49
  store i32 0, ptr %2, align 4
  store i32 1, ptr %6, align 4
  br label %53

53:                                               ; preds = %52, %51, %48, %40
  call void @llvm.lifetime.end.p0(i64 2, ptr %4) #3
  %54 = load i32, ptr %2, align 4
  ret i32 %54
}