; Function Attrs: mustprogress uwtable
define hidden noundef range(i32 0, 3) i32 @_ZN5array6solver5checkEv(ptr noundef nonnull align 8 dereferenceable(536) %0) unnamed_addr #3 align 2 {
  %2 = alloca [2 x i8], align 2
  %3 = getelementptr inbounds nuw i8, ptr %0, i64 104
  %4 = load i32, ptr %3, align 8, !tbaa !160
  %.not1.i = icmp eq i32 %4, 0
  %indvars.iv.sroa.gep11 = getelementptr inbounds nuw i8, ptr %2, i64 1
  br i1 %.not1.i, label %_ZN3euf13th_euf_solver10force_pushEv.exit, label %.lr.ph.i

.lr.ph.i:                                         ; preds = %1, %.lr.ph.i
  %5 = load ptr, ptr %0, align 8, !tbaa !3
  %6 = getelementptr inbounds nuw i8, ptr %5, i64 512
  %7 = load ptr, ptr %6, align 8
  tail call void %7(ptr noundef nonnull align 8 dereferenceable(108) %0)
  %8 = load i32, ptr %3, align 8, !tbaa !160
  %9 = add i32 %8, -1
  store i32 %9, ptr %3, align 8, !tbaa !160
  %.not.i = icmp eq i32 %9, 0
  br i1 %.not.i, label %_ZN3euf13th_euf_solver10force_pushEv.exit, label %.lr.ph.i, !llvm.loop !161

_ZN3euf13th_euf_solver10force_pushEv.exit:        ; preds = %.lr.ph.i, %1
  call void @llvm.lifetime.start.p0(i64 2, ptr nonnull %2) #20
  store i16 0, ptr %2, align 2
  %10 = getelementptr inbounds nuw i8, ptr %0, i64 24
  %11 = load ptr, ptr %10, align 8, !tbaa !162
  %12 = getelementptr inbounds nuw i8, ptr %11, i64 2356
  %13 = load i32, ptr %12, align 4, !tbaa !163
  %14 = mul i32 %13, 214013
  %15 = add i32 %14, 2531011
  store i32 %15, ptr %12, align 4, !tbaa !163
  %16 = lshr i32 %15, 16
  %.zext = and i32 %16, 1
  %17 = zext nneg i32 %.zext to i64
  %18 = getelementptr inbounds nuw [2 x i8], ptr %2, i64 0, i64 %17
  store i8 1, ptr %18, align 1, !tbaa !165
  br label %19

19:                                               ; preds = %_ZN3euf13th_euf_solver10force_pushEv.exit, %.thread
  %.not = phi i1 [ true, %_ZN3euf13th_euf_solver10force_pushEv.exit ], [ false, %.thread ]
  %indvars.iv.sroa.phi = phi ptr [ %2, %_ZN3euf13th_euf_solver10force_pushEv.exit ], [ %indvars.iv.sroa.gep11, %.thread ]
  %20 = load i8, ptr %indvars.iv.sroa.phi, align 1, !tbaa !165, !range !166, !noundef !167
  %21 = trunc nuw i8 %20 to i1
  br i1 %21, label %22, label %24

22:                                               ; preds = %19
  %23 = tail call noundef zeroext i1 @_ZN5array6solver18add_delayed_axiomsEv(ptr noundef nonnull align 8 dereferenceable(536) %0)
  br i1 %23, label %.loopexit, label %.thread

24:                                               ; preds = %19
  %25 = tail call noundef zeroext i1 @_ZN5array6solver24add_interface_equalitiesEv(ptr noundef nonnull align 8 dereferenceable(536) %0)
  br i1 %25, label %.loopexit, label %.thread

.thread:                                          ; preds = %22, %24
  br i1 %.not, label %19, label %.critedge, !llvm.loop !168

.critedge:                                        ; preds = %.thread
  %26 = getelementptr inbounds nuw i8, ptr %0, i64 440
  %27 = load ptr, ptr %26, align 8, !tbaa !138
  %28 = icmp eq ptr %27, null
  br i1 %28, label %_ZNK6vectorIN5array6solver12axiom_recordELb0EjE4sizeEv.exit.thread, label %_ZNK6vectorIN5array6solver12axiom_recordELb0EjE4sizeEv.exit

_ZNK6vectorIN5array6solver12axiom_recordELb0EjE4sizeEv.exit: ; preds = %.critedge
  %29 = getelementptr inbounds nuw i8, ptr %0, i64 452
  %30 = load i32, ptr %29, align 4, !tbaa !169
  %31 = getelementptr inbounds i8, ptr %27, i64 -4
  %32 = load i32, ptr %31, align 4, !tbaa !140
  %33 = icmp ult i32 %30, %32
  br i1 %33, label %.loopexit, label %_ZNK6vectorIN5array6solver12axiom_recordELb0EjE4sizeEv.exit.thread

_ZNK6vectorIN5array6solver12axiom_recordELb0EjE4sizeEv.exit.thread: ; preds = %.critedge, %_ZNK6vectorIN5array6solver12axiom_recordELb0EjE4sizeEv.exit
  %34 = tail call noundef zeroext i1 @_ZN5array6solver13check_lambdasEv(ptr noundef nonnull align 8 dereferenceable(536) %0)
  %. = select i1 %34, i32 0, i32 2
  br label %.loopexit

.loopexit:                                        ; preds = %22, %24, %_ZNK6vectorIN5array6solver12axiom_recordELb0EjE4sizeEv.exit.thread, %_ZNK6vectorIN5array6solver12axiom_recordELb0EjE4sizeEv.exit
  %.1 = phi i32 [ 1, %_ZNK6vectorIN5array6solver12axiom_recordELb0EjE4sizeEv.exit ], [ %., %_ZNK6vectorIN5array6solver12axiom_recordELb0EjE4sizeEv.exit.thread ], [ 1, %24 ], [ 1, %22 ]
  call void @llvm.lifetime.end.p0(i64 2, ptr nonnull %2) #20
  ret i32 %.1
}